; Function Attrs: mustprogress uwtable
define hidden void @_ZN3mbp10term_graph15pick_repr_classEPNS_4termE(ptr noundef nonnull readonly align 8 captures(none) dereferenceable(244) %0, ptr noundef %1) local_unnamed_addr #3 align 2 {
  %.0.in20 = getelementptr inbounds nuw i8, ptr %1, i64 32
  %.021 = load ptr, ptr %.0.in20, align 8, !tbaa !199
  %.not22 = icmp eq ptr %.021, %1
  br i1 %.not22, label %.preheader, label %.lr.ph

.preheader:                                       ; preds = %_ZN3mbp19all_children_pickedEPNS_4termE.exit, %2
  %.015.lcssa = phi ptr [ %1, %2 ], [ %.1, %_ZN3mbp19all_children_pickedEPNS_4termE.exit ]
  br label %3

3:                                                ; preds = %.preheader, %3
  %.0.i = phi ptr [ %6, %3 ], [ %.015.lcssa, %.preheader ]
  %4 = getelementptr inbounds nuw i8, ptr %.0.i, i64 24
  store ptr %.015.lcssa, ptr %4, align 8, !tbaa !198
  %5 = getelementptr inbounds nuw i8, ptr %.0.i, i64 32
  %6 = load ptr, ptr %5, align 8, !tbaa !199
  %.not.i = icmp eq ptr %6, %.015.lcssa
  br i1 %.not.i, label %_ZN3mbp4term7mk_reprEv.exit, label %3, !llvm.loop !235

_ZN3mbp4term7mk_reprEv.exit:                      ; preds = %3
  ret void

.lr.ph:                                           ; preds = %2, %_ZN3mbp19all_children_pickedEPNS_4termE.exit
  %.024 = phi ptr [ %.0, %_ZN3mbp19all_children_pickedEPNS_4termE.exit ], [ %.021, %2 ]
  %.01523 = phi ptr [ %.1, %_ZN3mbp19all_children_pickedEPNS_4termE.exit ], [ %1, %2 ]
  %7 = getelementptr inbounds nuw i8, ptr %.024, i64 56
  %8 = load ptr, ptr %7, align 8, !tbaa !45
  %9 = icmp eq ptr %8, null
  br i1 %9, label %.loopexit, label %_ZNK3mbp4term3degEv.exit.i

_ZNK3mbp4term3degEv.exit.i:                       ; preds = %.lr.ph
  %10 = getelementptr inbounds i8, ptr %8, i64 -4
  %11 = load i32, ptr %10, align 4, !tbaa !34
  %12 = icmp eq i32 %11, 0
  br i1 %12, label %.loopexit, label %.lr.ph.preheader.i

.lr.ph.preheader.i:                               ; preds = %_ZNK3mbp4term3degEv.exit.i
  %13 = zext i32 %11 to i64
  %14 = getelementptr inbounds nuw ptr, ptr %8, i64 %13
  br label %.lr.ph.i

15:                                               ; preds = %.lr.ph.i
  %16 = getelementptr inbounds nuw i8, ptr %.01318.i, i64 8
  %.not.i16 = icmp eq ptr %16, %14
  br i1 %.not.i16, label %.loopexit, label %.lr.ph.i

.lr.ph.i:                                         ; preds = %15, %.lr.ph.preheader.i
  %.01318.i = phi ptr [ %16, %15 ], [ %8, %.lr.ph.preheader.i ]
  %17 = load ptr, ptr %.01318.i, align 8, !tbaa !46
  %18 = getelementptr inbounds nuw i8, ptr %17, i64 24
  %19 = load ptr, ptr %18, align 8, !tbaa !198
  %.not14.not.not.i = icmp eq ptr %19, null
  br i1 %.not14.not.not.i, label %_ZN3mbp19all_children_pickedEPNS_4termE.exit, label %15

.loopexit:                                        ; preds = %15, %_ZNK3mbp4term3degEv.exit.i, %.lr.ph
  %20 = getelementptr inbounds nuw i8, ptr %.024, i64 40
  %21 = load i16, ptr %20, align 8
  %22 = and i16 %21, 512
  %.not26 = icmp eq i16 %22, 0
  %23 = getelementptr inbounds nuw i8, ptr %.01523, i64 40
  %24 = load i16, ptr %23, align 8
  %25 = and i16 %24, 512
  %.not27 = icmp eq i16 %25, 0
  br i1 %.not26, label %.loopexit._crit_edge, label %26

.loopexit._crit_edge:                             ; preds = %.loopexit
  br i1 %.not27, label %27, label %_ZN3mbp19all_children_pickedEPNS_4termE.exit

26:                                               ; preds = %.loopexit
  br i1 %.not27, label %29, label %27

27:                                               ; preds = %26, %.loopexit._crit_edge
  %28 = tail call noundef zeroext i1 @_ZN3mbp10term_graph7term_ltERKNS_4termES3_(ptr noundef nonnull align 8 dereferenceable(244) %0, ptr noundef nonnull align 8 dereferenceable(88) %.024, ptr noundef nonnull align 8 dereferenceable(88) %.01523)
  br i1 %28, label %29, label %_ZN3mbp19all_children_pickedEPNS_4termE.exit

29:                                               ; preds = %27, %26
  br label %_ZN3mbp19all_children_pickedEPNS_4termE.exit

_ZN3mbp19all_children_pickedEPNS_4termE.exit:     ; preds = %.lr.ph.i, %.loopexit._crit_edge, %27, %29
  %.1 = phi ptr [ %.024, %29 ], [ %.01523, %27 ], [ %.01523, %.loopexit._crit_edge ], [ %.01523, %.lr.ph.i ]
  %.0.in = getelementptr inbounds nuw i8, ptr %.024, i64 32
  %.0 = load ptr, ptr %.0.in, align 8, !tbaa !199
  %.not = icmp eq ptr %.0, %1
  br i1 %.not, label %.preheader, label %.lr.ph, !llvm.loop !236
}